; ModuleID = 'source-C-CXX/10/112.c'
source_filename = "source-C-CXX/10/112.c"
target datalayout = "e-m:e-p270:32:32-p271:32:32-p272:64:64-i64:64-f80:128-n8:16:32:64-S128"
target triple = "x86_64-pc-linux-gnu"

@.str = private unnamed_addr constant [9 x i8] c"%d %d %d\00", align 1
@.str.1 = private unnamed_addr constant [3 x i8] c"%d\00", align 1
@__const.main.num.2 = private unnamed_addr constant [12 x i32] [i32 31, i32 60, i32 91, i32 121, i32 152, i32 182, i32 213, i32 244, i32 274, i32 305, i32 335, i32 366], align 16
@__const.main.num.3 = private unnamed_addr constant [12 x i32] [i32 31, i32 50, i32 90, i32 120, i32 151, i32 181, i32 212, i32 243, i32 273, i32 304, i32 334, i32 365], align 16

; Function Attrs: nofree nounwind sspstrong uwtable
define dso_local i32 @main() local_unnamed_addr #0 {
  %1 = alloca i32, align 4
  %2 = alloca i32, align 4
  %3 = alloca i32, align 4
  %4 = bitcast i32* %1 to i8*
  call void @llvm.lifetime.start.p0i8(i64 4, i8* nonnull %4) #3
  %5 = bitcast i32* %2 to i8*
  call void @llvm.lifetime.start.p0i8(i64 4, i8* nonnull %5) #3
  %6 = bitcast i32* %3 to i8*
  call void @llvm.lifetime.start.p0i8(i64 4, i8* nonnull %6) #3
  %7 = call i32 (i8*, ...) @__isoc99_scanf(i8* getelementptr inbounds ([9 x i8], [9 x i8]* @.str, i64 0, i64 0), i32* nonnull %1, i32* nonnull %2, i32* nonnull %3)
  %8 = load i32, i32* %1, align 4, !tbaa !5
  %9 = and i32 %8, 3
  %10 = icmp eq i32 %9, 0
  br i1 %10, label %11, label %39

11:                                               ; preds = %0
  %12 = srem i32 %8, 100
  %13 = icmp ne i32 %12, 0
  %14 = srem i32 %8, 400
  %15 = icmp eq i32 %14, 0
  %16 = or i1 %13, %15
  %17 = load i32, i32* %2, align 4, !tbaa !5
  %18 = icmp sgt i32 %17, 1
  br i1 %16, label %29, label %19

19:                                               ; preds = %11
  br i1 %18, label %20, label %27

20:                                               ; preds = %19
  %21 = add nsw i32 %17, -2
  %22 = zext i32 %21 to i64
  %23 = getelementptr inbounds [12 x i32], [12 x i32]* @__const.main.num.3, i64 0, i64 %22
  %24 = load i32, i32* %23, align 4, !tbaa !5
  %25 = load i32, i32* %3, align 4, !tbaa !5
  %26 = add nsw i32 %25, %24
  br label %51

27:                                               ; preds = %19
  %28 = load i32, i32* %3, align 4, !tbaa !5
  br label %51

29:                                               ; preds = %11
  br i1 %18, label %30, label %37

30:                                               ; preds = %29
  %31 = add nsw i32 %17, -2
  %32 = zext i32 %31 to i64
  %33 = getelementptr inbounds [12 x i32], [12 x i32]* @__const.main.num.2, i64 0, i64 %32
  %34 = load i32, i32* %33, align 4, !tbaa !5
  %35 = load i32, i32* %3, align 4, !tbaa !5
  %36 = add nsw i32 %35, %34
  br label %51

37:                                               ; preds = %29
  %38 = load i32, i32* %3, align 4, !tbaa !5
  br label %51

39:                                               ; preds = %0
  %40 = load i32, i32* %2, align 4, !tbaa !5
  %41 = icmp sgt i32 %40, 1
  br i1 %41, label %42, label %49

42:                                               ; preds = %39
  %43 = add nsw i32 %40, -2
  %44 = zext i32 %43 to i64
  %45 = getelementptr inbounds [12 x i32], [12 x i32]* @__const.main.num.3, i64 0, i64 %44
  %46 = load i32, i32* %45, align 4, !tbaa !5
  %47 = load i32, i32* %3, align 4, !tbaa !5
  %48 = add nsw i32 %47, %46
  br label %51

49:                                               ; preds = %39
  %50 = load i32, i32* %3, align 4, !tbaa !5
  br label %51

51:                                               ; preds = %42, %49, %30, %37, %20, %27
  %52 = phi i32 [ %26, %20 ], [ %28, %27 ], [ %36, %30 ], [ %38, %37 ], [ %48, %42 ], [ %50, %49 ]
  %53 = call i32 (i8*, ...) @printf(i8* nonnull dereferenceable(1) getelementptr inbounds ([3 x i8], [3 x i8]* @.str.1, i64 0, i64 0), i32 %52)
  call void @llvm.lifetime.end.p0i8(i64 4, i8* nonnull %6) #3
  call void @llvm.lifetime.end.p0i8(i64 4, i8* nonnull %5) #3
  call void @llvm.lifetime.end.p0i8(i64 4, i8* nonnull %4) #3
  ret i32 0
}

; Function Attrs: argmemonly mustprogress nofree nosync nounwind willreturn
declare void @llvm.lifetime.start.p0i8(i64 immarg, i8* nocapture) #1

; Function Attrs: nofree nounwind
declare noundef i32 @__isoc99_scanf(i8* nocapture noundef readonly, ...) local_unnamed_addr #2

; Function Attrs: nofree nounwind
declare noundef i32 @printf(i8* nocapture noundef readonly, ...) local_unnamed_addr #2

; Function Attrs: argmemonly mustprogress nofree nosync nounwind willreturn
declare void @llvm.lifetime.end.p0i8(i64 immarg, i8* nocapture) #1


!llvm.module.flags = !{!0, !1, !2, !3}
!llvm.ident = !{!4}

!0 = !{i32 1, !"wchar_size", i32 4}
!1 = !{i32 7, !"PIC Level", i32 2}
!2 = !{i32 7, !"PIE Level", i32 2}
!3 = !{i32 7, !"uwtable", i32 1}
!4 = !{!"clang version 13.0.0"}
!5 = !{!6, !6, i64 0}
!6 = !{!"int", !7, i64 0}
!7 = !{!"omnipotent char", !8, i64 0}
!8 = !{!"Simple C/C++ TBAA"}
